; Function Attrs: mustprogress uwtable
define i32 @uspoof_getSkeleton_75(ptr noundef %sc, i32 noundef %type, ptr noundef %id, i32 noundef %length, ptr noundef %dest, i32 noundef %destCapacity, ptr noundef nonnull %status) local_unnamed_addr #0 personality ptr @__gxx_personality_v0 {
entry:
  %idStr = alloca %"class.icu_75::UnicodeString", align 8
  %agg.tmp = alloca %"class.icu_75::ConstChar16Ptr", align 8
  %destStr = alloca %"class.icu_75::UnicodeString", align 8
  %agg.tmp14 = alloca %"class.icu_75::Char16Ptr", align 8
  %call = tail call noundef ptr @_ZN6icu_759SpoofImpl12validateThisEPK13USpoofCheckerR10UErrorCode(ptr noundef %sc, ptr noundef nonnull align 4 dereferenceable(4) %status)
  %0 = load i32, ptr %status, align 4
  %cmp.i = icmp slt i32 %0, 1
  br i1 %cmp.i, label %if.end, label %return

if.end:                                           ; preds = %entry
  %cmp = icmp slt i32 %length, -1
  %cmp2 = icmp slt i32 %destCapacity, 0
  %or.cond = or i1 %cmp, %cmp2
  br i1 %or.cond, label %if.then6, label %lor.lhs.false3

lor.lhs.false3:                                   ; preds = %if.end
  %cmp4 = icmp eq i32 %destCapacity, 0
  %cmp5 = icmp ne ptr %dest, null
  %or.cond1 = and i1 %cmp5, %cmp4
  br i1 %or.cond1, label %if.then6, label %if.end7

if.then6:                                         ; preds = %lor.lhs.false3, %if.end
  store i32 1, ptr %status, align 4
  br label %return

if.end7:                                          ; preds = %lor.lhs.false3
  %cmp8 = icmp eq i32 %length, -1
  %conv = zext i1 %cmp8 to i8
  store ptr %id, ptr %agg.tmp, align 8
  invoke void @_ZN6icu_7513UnicodeStringC1EaNS_14ConstChar16PtrEi(ptr noundef nonnull align 8 dereferenceable(64) %idStr, i8 noundef signext %conv, ptr noundef nonnull %agg.tmp, i32 noundef %length)
          to label %invoke.cont10 unwind label %lpad

invoke.cont10:                                    ; preds = %if.end7
  %1 = load ptr, ptr %agg.tmp, align 8
  call void asm sideeffect "", "rm,~{memory},~{dirflag},~{fpsr},~{flags}"(ptr %1) #6, !srcloc !4
  store ptr getelementptr inbounds ({ [13 x ptr] }, ptr @_ZTVN6icu_7513UnicodeStringE, i64 0, i32 0, i64 2), ptr %destStr, align 8
  %fUnion2.i = getelementptr inbounds i8, ptr %destStr, i64 8
  store i16 2, ptr %fUnion2.i, align 8
  %call13 = invoke noundef nonnull align 8 dereferenceable(64) ptr @_Z34uspoof_getSkeletonUnicodeString_75PK13USpoofCheckerjRKN6icu_7513UnicodeStringERS3_P10UErrorCode(ptr noundef %sc, i32 poison, ptr noundef nonnull align 8 dereferenceable(64) %idStr, ptr noundef nonnull align 8 dereferenceable(64) %destStr, ptr noundef nonnull %status)
          to label %invoke.cont12 unwind label %lpad11

invoke.cont12:                                    ; preds = %invoke.cont10
  store ptr %dest, ptr %agg.tmp14, align 8
  %call18 = invoke noundef i32 @_ZNK6icu_7513UnicodeString7extractENS_9Char16PtrEiR10UErrorCode(ptr noundef nonnull align 8 dereferenceable(64) %destStr, ptr noundef nonnull %agg.tmp14, i32 noundef %destCapacity, ptr noundef nonnull align 4 dereferenceable(4) %status)
          to label %invoke.cont19 unwind label %lpad16

invoke.cont19:                                    ; preds = %invoke.cont12
  %2 = load ptr, ptr %agg.tmp14, align 8
  call void asm sideeffect "", "rm,~{memory},~{dirflag},~{fpsr},~{flags}"(ptr %2) #6, !srcloc !10
  %3 = load i16, ptr %fUnion2.i, align 8
  %cmp.i.i = icmp slt i16 %3, 0
  %4 = ashr i16 %3, 5
  %shr.i.i = sext i16 %4 to i32
  %fLength.i = getelementptr inbounds i8, ptr %destStr, i64 12
  %5 = load i32, ptr %fLength.i, align 4
  %cond.i = select i1 %cmp.i.i, i32 %5, i32 %shr.i.i
  call void @_ZN6icu_7513UnicodeStringD1Ev(ptr noundef nonnull align 8 dereferenceable(64) %destStr) #6
  call void @_ZN6icu_7513UnicodeStringD1Ev(ptr noundef nonnull align 8 dereferenceable(64) %idStr) #6
  br label %return

lpad:                                             ; preds = %if.end7
  %6 = landingpad { ptr, i32 }
          cleanup
  %7 = load ptr, ptr %agg.tmp, align 8
  call void asm sideeffect "", "rm,~{memory},~{dirflag},~{fpsr},~{flags}"(ptr %7) #6, !srcloc !4
  br label %eh.resume

lpad11:                                           ; preds = %invoke.cont10
  %8 = landingpad { ptr, i32 }
          cleanup
  br label %ehcleanup

lpad16:                                           ; preds = %invoke.cont12
  %9 = landingpad { ptr, i32 }
          cleanup
  %10 = load ptr, ptr %agg.tmp14, align 8
  call void asm sideeffect "", "rm,~{memory},~{dirflag},~{fpsr},~{flags}"(ptr %10) #6, !srcloc !10
  br label %ehcleanup

ehcleanup:                                        ; preds = %lpad16, %lpad11
  %.pn = phi { ptr, i32 } [ %8, %lpad11 ], [ %9, %lpad16 ]
  call void @_ZN6icu_7513UnicodeStringD1Ev(ptr noundef nonnull align 8 dereferenceable(64) %destStr) #6
  call void @_ZN6icu_7513UnicodeStringD1Ev(ptr noundef nonnull align 8 dereferenceable(64) %idStr) #6
  br label %eh.resume

return:                                           ; preds = %entry, %invoke.cont19, %if.then6
  %retval.0 = phi i32 [ 0, %if.then6 ], [ %cond.i, %invoke.cont19 ], [ 0, %entry ]
  ret i32 %retval.0

eh.resume:                                        ; preds = %ehcleanup, %lpad
  %.pn.pn.pn = phi { ptr, i32 } [ %.pn, %ehcleanup ], [ %6, %lpad ]
  resume { ptr, i32 } %.pn.pn.pn
}